target datalayout = "e-m:e-p270:32:32-p271:32:32-p272:64:64-i64:64-i128:128-f80:128-n8:16:32:64-S128"
target triple = "x86_64-pc-linux-gnu"

%struct.evp_test_st = type { %struct.stanza_st, ptr, i32, ptr, ptr, ptr, ptr, ptr, ptr, i32 }
%struct.stanza_st = type { ptr, ptr, i32, i32, i32, i32, i32, i32, [150 x %struct.pair_st], ptr, [32768 x i8] }
%struct.pair_st = type { ptr, ptr }
%struct.pbe_data_st = type { i32, i64, i64, i64, i64, i32, i32, ptr, ptr, i64, ptr, i64, ptr, i64 }

@.str.29 = private unnamed_addr constant [27 x i8] c"../openssl/test/evp_test.c\00", align 1

; Function Attrs: nounwind uwtable
define internal void @pbe_test_cleanup(ptr noundef %0) #0 {
  %2 = alloca ptr, align 8
  %3 = alloca ptr, align 8
  store ptr %0, ptr %2, align 8, !tbaa !15
  call void @llvm.lifetime.start.p0(i64 8, ptr %3) #10
  %4 = load ptr, ptr %2, align 8, !tbaa !15
  %5 = getelementptr inbounds nuw %struct.evp_test_st, ptr %4, i32 0, i32 8
  %6 = load ptr, ptr %5, align 8, !tbaa !66
  store ptr %6, ptr %3, align 8, !tbaa !328
  %7 = load ptr, ptr %3, align 8, !tbaa !328
  %8 = getelementptr inbounds nuw %struct.pbe_data_st, ptr %7, i32 0, i32 8
  %9 = load ptr, ptr %8, align 8, !tbaa !332
  call void @CRYPTO_free(ptr noundef %9, ptr noundef @.str.29, i32 noundef 3123)
  %10 = load ptr, ptr %3, align 8, !tbaa !328
  %11 = getelementptr inbounds nuw %struct.pbe_data_st, ptr %10, i32 0, i32 10
  %12 = load ptr, ptr %11, align 8, !tbaa !333
  call void @CRYPTO_free(ptr noundef %12, ptr noundef @.str.29, i32 noundef 3124)
  %13 = load ptr, ptr %3, align 8, !tbaa !328
  %14 = getelementptr inbounds nuw %struct.pbe_data_st, ptr %13, i32 0, i32 12
  %15 = load ptr, ptr %14, align 8, !tbaa !334
  call void @CRYPTO_free(ptr noundef %15, ptr noundef @.str.29, i32 noundef 3125)
  call void @llvm.lifetime.end.p0(i64 8, ptr %3) #10
  ret void
}