; Function Attrs: nounwind uwtable
define internal void @pbe_test_cleanup(ptr noundef readonly captures(none) %0) #1 {
  %2 = getelementptr inbounds nuw i8, ptr %0, i64 35272
  %3 = load ptr, ptr %2, align 8, !tbaa !20
  %4 = getelementptr inbounds nuw i8, ptr %3, i64 56
  %5 = load ptr, ptr %4, align 8, !tbaa !270
  tail call void @CRYPTO_free(ptr noundef %5, ptr noundef nonnull @.str.29, i32 noundef 3123) #10
  %6 = getelementptr inbounds nuw i8, ptr %3, i64 72
  %7 = load ptr, ptr %6, align 8, !tbaa !271
  tail call void @CRYPTO_free(ptr noundef %7, ptr noundef nonnull @.str.29, i32 noundef 3124) #10
  %8 = getelementptr inbounds nuw i8, ptr %3, i64 88
  %9 = load ptr, ptr %8, align 8, !tbaa !272
  tail call void @CRYPTO_free(ptr noundef %9, ptr noundef nonnull @.str.29, i32 noundef 3125) #10
  ret void
}